target datalayout = "e-m:e-p270:32:32-p271:32:32-p272:64:64-i64:64-i128:128-f80:128-n8:16:32:64-S128"
target triple = "x86_64-pc-linux-gnu"

%struct.SamplingContext = type { i32, i32, i32, i32, i32 }
%struct.AVRational = type { i32, i32 }

; Function Attrs: nounwind uwtable
define internal void @sampling_init(ptr noundef %0, double noundef %1, i32 noundef %2) #1 {
  %4 = alloca ptr, align 8
  %5 = alloca double, align 8
  %6 = alloca i32, align 4
  %7 = alloca %struct.AVRational, align 4
  %8 = alloca i32, align 4
  %9 = alloca i32, align 4
  %10 = alloca %struct.AVRational, align 4
  store ptr %0, ptr %4, align 8, !tbaa !75
  store double %1, ptr %5, align 8, !tbaa !55
  store i32 %2, ptr %6, align 4, !tbaa !37
  call void @llvm.lifetime.start.p0(i64 8, ptr %7) #9
  call void @llvm.lifetime.start.p0(i64 4, ptr %8) #9
  call void @llvm.lifetime.start.p0(i64 4, ptr %9) #9
  %11 = load i32, ptr %6, align 4, !tbaa !37
  %12 = sdiv i32 2147483647, %11
  store i32 %12, ptr %9, align 4, !tbaa !37
  %13 = load double, ptr %5, align 8, !tbaa !55
  %14 = load i32, ptr %6, align 4, !tbaa !37
  %15 = sitofp i32 %14 to double
  %16 = frem nsz double %13, %15
  store double %16, ptr %5, align 8, !tbaa !55
  call void @llvm.lifetime.start.p0(i64 8, ptr %10) #9
  %17 = load double, ptr %5, align 8, !tbaa !55
  %18 = frem nsz double %17, 1.000000e+00
  %19 = load i32, ptr %9, align 4, !tbaa !37
  %20 = call i64 @av_d2q(double noundef %18, i32 noundef %19) #10
  store i64 %20, ptr %10, align 4
  call void @llvm.memcpy.p0.p0.i64(ptr align 4 %7, ptr align 4 %10, i64 8, i1 false), !tbaa.struct !77
  call void @llvm.lifetime.end.p0(i64 8, ptr %10) #9
  %21 = getelementptr inbounds nuw %struct.AVRational, ptr %7, i32 0, i32 1
  %22 = load i32, ptr %21, align 4, !tbaa !78
  %23 = load i32, ptr %9, align 4, !tbaa !37
  %24 = icmp sgt i32 %22, %23
  br i1 %24, label %25, label %27

25:                                               ; preds = %3
  %26 = load i32, ptr %9, align 4, !tbaa !37
  br label %30

27:                                               ; preds = %3
  %28 = getelementptr inbounds nuw %struct.AVRational, ptr %7, i32 0, i32 1
  %29 = load i32, ptr %28, align 4, !tbaa !78
  br label %30

30:                                               ; preds = %27, %25
  %31 = phi i32 [ %26, %25 ], [ %29, %27 ]
  store i32 %31, ptr %8, align 4, !tbaa !37
  %32 = load double, ptr %5, align 8, !tbaa !55
  %33 = call nsz double @ldexp(double noundef %32, i32 noundef 32) #10
  %34 = load i32, ptr %6, align 4, !tbaa !37
  %35 = sitofp i32 %34 to double
  %36 = fdiv nsz double %33, %35
  %37 = fptoui double %36 to i32
  %38 = load ptr, ptr %4, align 8, !tbaa !75
  %39 = getelementptr inbounds nuw %struct.SamplingContext, ptr %38, i32 0, i32 1
  store i32 %37, ptr %39, align 4, !tbaa !79
  %40 = load i32, ptr %8, align 4, !tbaa !37
  %41 = load i32, ptr %6, align 4, !tbaa !37
  %42 = mul nsw i32 %40, %41
  %43 = load ptr, ptr %4, align 8, !tbaa !75
  %44 = getelementptr inbounds nuw %struct.SamplingContext, ptr %43, i32 0, i32 4
  store i32 %42, ptr %44, align 4, !tbaa !80
  %45 = load double, ptr %5, align 8, !tbaa !55
  %46 = call nsz double @ldexp(double noundef %45, i32 noundef 32) #10
  %47 = load i32, ptr %6, align 4, !tbaa !37
  %48 = sitofp i32 %47 to double
  %49 = fdiv nsz double %46, %48
  %50 = load ptr, ptr %4, align 8, !tbaa !75
  %51 = getelementptr inbounds nuw %struct.SamplingContext, ptr %50, i32 0, i32 1
  %52 = load i32, ptr %51, align 4, !tbaa !79
  %53 = uitofp i32 %52 to double
  %54 = fsub nsz double %49, %53
  %55 = load ptr, ptr %4, align 8, !tbaa !75
  %56 = getelementptr inbounds nuw %struct.SamplingContext, ptr %55, i32 0, i32 4
  %57 = load i32, ptr %56, align 4, !tbaa !80
  %58 = sitofp i32 %57 to double
  %59 = fmul nsz double %54, %58
  %60 = call nsz double @llvm.round.f64(double %59)
  %61 = fptosi double %60 to i32
  %62 = load ptr, ptr %4, align 8, !tbaa !75
  %63 = getelementptr inbounds nuw %struct.SamplingContext, ptr %62, i32 0, i32 3
  store i32 %61, ptr %63, align 4, !tbaa !81
  %64 = load ptr, ptr %4, align 8, !tbaa !75
  %65 = getelementptr inbounds nuw %struct.SamplingContext, ptr %64, i32 0, i32 3
  %66 = load i32, ptr %65, align 4, !tbaa !81
  %67 = load ptr, ptr %4, align 8, !tbaa !75
  %68 = getelementptr inbounds nuw %struct.SamplingContext, ptr %67, i32 0, i32 4
  %69 = load i32, ptr %68, align 4, !tbaa !80
  %70 = icmp sge i32 %66, %69
  br i1 %70, label %71, label %78

71:                                               ; preds = %30
  %72 = load ptr, ptr %4, align 8, !tbaa !75
  %73 = getelementptr inbounds nuw %struct.SamplingContext, ptr %72, i32 0, i32 1
  %74 = load i32, ptr %73, align 4, !tbaa !79
  %75 = add i32 %74, 1
  store i32 %75, ptr %73, align 4, !tbaa !79
  %76 = load ptr, ptr %4, align 8, !tbaa !75
  %77 = getelementptr inbounds nuw %struct.SamplingContext, ptr %76, i32 0, i32 3
  store i32 0, ptr %77, align 4, !tbaa !81
  br label %78

78:                                               ; preds = %71, %30
  %79 = load ptr, ptr %4, align 8, !tbaa !75
  %80 = getelementptr inbounds nuw %struct.SamplingContext, ptr %79, i32 0, i32 4
  %81 = load i32, ptr %80, align 4, !tbaa !80
  %82 = sub nsw i32 0, %81
  %83 = sub nsw i32 %82, 1
  %84 = sdiv i32 %83, 2
  %85 = load ptr, ptr %4, align 8, !tbaa !75
  %86 = getelementptr inbounds nuw %struct.SamplingContext, ptr %85, i32 0, i32 2
  store i32 %84, ptr %86, align 4, !tbaa !82
  call void @llvm.lifetime.end.p0(i64 4, ptr %9) #9
  call void @llvm.lifetime.end.p0(i64 4, ptr %8) #9
  call void @llvm.lifetime.end.p0(i64 8, ptr %7) #9
  ret void
}