; Function Attrs: mustprogress nofree nosync nounwind willreturn memory(argmem: write) uwtable
define internal fastcc void @sampling_init(ptr noundef writeonly captures(none) initializes((4, 20)) %0, double noundef %1, i32 noundef %2) unnamed_addr #6 {
  %4 = sdiv i32 2147483647, %2
  %5 = sitofp i32 %2 to double
  %6 = frem nsz double %1, %5
  %7 = frem nsz double %6, 1.000000e+00
  %8 = tail call i64 @av_d2q(double noundef %7, i32 noundef %4) #11
  %.sroa.3.0.extract.shift = lshr i64 %8, 32
  %.sroa.3.0.extract.trunc = trunc nuw i64 %.sroa.3.0.extract.shift to i32
  %9 = tail call i32 @llvm.smin.i32(i32 %4, i32 %.sroa.3.0.extract.trunc)
  %10 = tail call nsz double @ldexp(double noundef %6, i32 noundef 32) #11
  %11 = fdiv nsz double %10, %5
  %12 = fptoui double %11 to i32
  %13 = getelementptr inbounds nuw i8, ptr %0, i64 4
  store i32 %12, ptr %13, align 4, !tbaa !62
  %14 = mul nsw i32 %9, %2
  %15 = getelementptr inbounds nuw i8, ptr %0, i64 16
  store i32 %14, ptr %15, align 4, !tbaa !64
  %16 = uitofp i32 %12 to double
  %17 = fsub nsz double %11, %16
  %18 = sitofp i32 %14 to double
  %19 = fmul nsz double %17, %18
  %20 = tail call nsz double @llvm.round.f64(double %19)
  %21 = fptosi double %20 to i32
  %22 = getelementptr inbounds nuw i8, ptr %0, i64 12
  store i32 %21, ptr %22, align 4, !tbaa !63
  %.not = icmp sgt i32 %14, %21
  br i1 %.not, label %25, label %23

23:                                               ; preds = %3
  %24 = add i32 %12, 1
  store i32 %24, ptr %13, align 4, !tbaa !62
  store i32 0, ptr %22, align 4, !tbaa !63
  br label %25

25:                                               ; preds = %23, %3
  %26 = xor i32 %14, -1
  %27 = sdiv i32 %26, 2
  %28 = getelementptr inbounds nuw i8, ptr %0, i64 8
  store i32 %27, ptr %28, align 4, !tbaa !61
  ret void
}